Certificate:
    Data:
        Version: 3 (0x2)
        Serial Number: 2 (0x2)
        Signature Algorithm: sha256WithRSAEncryption
        Issuer: C=PL, ST=Wielkopolska, L=Pozna\xC3\x85\xC2\x84, O=gotodev, OU=gotodev, CN=gotodev
        Validity
            Not Before: Dec  7 19:49:14 2023 GMT
            Not After : Sep  2 19:49:14 2026 GMT
        Subject: C=PL, ST=Wielkopolska, L=Pozna\xC3\x85\xC2\x84, O=gotodev, OU=gotodev, CN=gotodev.local
        Subject Public Key Info:
            Public Key Algorithm: rsaEncryption
                Public-Key: (2048 bit)
                Modulus:
                    00:bc:70:80:92:2b:93:04:5f:65:8c:f9:b5:cd:bb:
                    f3:7c:13:0f:6d:20:95:95:ed:47:af:8b:af:da:5d:
                    d1:8b:9e:b5:35:7d:85:53:ef:38:4a:e9:22:1f:c9:
                    d6:aa:1f:62:d5:7f:09:88:54:01:85:88:57:7f:f7:
                    b6:ba:2f:bd:99:e3:76:1e:35:ad:06:17:61:25:c4:
                    04:ea:66:52:e2:d3:6f:04:94:53:a3:24:05:b4:78:
                    a4:5e:33:31:df:b6:2b:a5:ef:c1:5d:3d:6c:87:40:
                    a6:45:17:41:15:0d:86:fb:51:6f:32:c8:10:47:ba:
                    21:09:b1:76:19:7e:58:81:ff:88:d6:f4:31:0f:0a:
                    f3:e1:e6:0d:e3:b8:66:79:96:0e:96:f1:dc:7c:5e:
                    d5:46:53:33:09:d6:68:cc:09:31:4a:13:0e:f1:3d:
                    6a:b6:a2:c4:e9:cb:0c:18:d9:f8:49:93:ff:f4:6c:
                    44:a3:ff:1a:d2:3d:5e:ea:90:20:50:d7:ac:ea:bc:
                    23:07:72:0b:92:69:c2:57:2d:57:e2:bd:d4:f5:90:
                    e3:d2:ed:ad:6b:7c:e0:12:5c:42:c0:ff:b6:e6:b9:
                    64:36:e0:73:2a:cc:d4:b9:09:de:99:a1:74:e7:55:
                    dd:37:5d:76:6e:a3:bd:2c:b1:3a:78:d7:64:de:79:
                    48:49
                Exponent: 65537 (0x10001)
        X509v3 extensions:
            X509v3 Subject Key Identifier: 
                97:35:3D:57:E9:32:6C:8E:4F:24:1F:3D:2B:E6:70:6A:4C:1F:0F:84
            X509v3 Authority Key Identifier: 
                31:59:65:BE:85:3A:8A:19:38:C8:25:A1:9B:19:AB:44:32:AB:15:6A
            X509v3 Basic Constraints: 
                CA:FALSE
            X509v3 Key Usage: 
                Digital Signature, Key Encipherment
            X509v3 Subject Alternative Name: 
                DNS:gotodev.local, DNS:*.gotodev.local, DNS:jenkins.local, DNS:alert-manager.local, DNS:prometheus.local, DNS:cadvisor.local, DNS:node-exporter.local, DNS:grafana.local, DNS:rabbitmq.local
            Netscape Comment: 
                OpenSSL Generated Certificate
    Signature Algorithm: sha256WithRSAEncryption
    Signature Value:
        36:70:40:9d:74:2e:b7:31:5a:c0:22:04:31:a7:0f:81:41:3e:
        62:3a:ae:76:c1:73:e4:73:98:d1:8b:66:b3:c3:44:b6:6a:0d:
        26:13:07:39:31:12:2d:f6:87:cf:86:13:a2:d6:a7:11:e5:3c:
        44:2b:b6:f7:09:c6:54:03:e9:7c:aa:2d:26:c3:fe:a8:ba:0d:
        79:e3:ba:58:b9:ee:a9:4c:39:3c:e9:d2:dd:7b:cc:0a:a6:31:
        36:78:6a:95:e2:43:89:49:22:ff:09:d6:78:96:50:a2:b4:f4:
        9f:22:a7:ab:c6:af:1a:3f:16:ae:af:63:75:07:3e:96:c9:c4:
        58:08:a0:4d:ee:52:a9:b6:90:63:b9:86:94:61:98:fb:2e:5e:
        e9:03:1c:5e:82:80:12:ca:03:f7:fd:3a:66:3c:e7:18:f0:ec:
        80:8a:5b:6a:00:ea:a3:2c:cd:76:9e:6c:ed:a6:cc:1d:cb:98:
        36:15:3a:7d:8d:7f:de:7b:b3:eb:2a:52:a1:dd:32:87:0d:c2:
        99:8f:9e:fa:23:32:26:ed:0c:63:bd:30:70:8c:f3:f7:93:80:
        4d:3b:d5:8f:5a:21:54:59:d9:80:5d:2b:58:1f:67:eb:20:40:
        04:a9:89:09:6e:d6:1c:ab:a5:ea:a5:bb:d0:ab:87:5a:9b:0b:
        a2:51:64:e9:d0:34:a4:6e:a2:dc:4a:d7:d3:bb:4a:a9:d0:3b:
        87:6e:19:c0:88:b9:23:40:49:75:0f:6f:9c:92:5b:27:0e:02:
        20:3e:c3:24:6f:79:e5:56:02:2b:46:dd:0f:53:c9:3b:3a:5b:
        af:73:a7:88:fb:91:b2:3b:07:04:16:fb:3f:ec:32:0b:de:d5:
        72:ce:d4:00:1a:67:ea:81:de:36:e7:c7:09:f5:68:2c:c7:32:
        85:2a:33:d0:31:7d:34:72:56:a4:2d:cd:19:b0:e9:ea:3b:40:
        dd:dd:3b:f2:a8:85:9b:c1:48:fa:0c:5f:b9:4d:e7:1d:a5:f0:
        63:56:d4:74:9d:b8:9f:10:26:8f:80:7e:b6:a1:ca:3b:ae:f4:
        b3:ef:c7:c6:dc:07:e8:c8:64:8e:33:53:54:66:3f:7f:a5:96:
        ac:77:d0:57:59:f4:7d:0d:35:fd:0d:f9:e7:92:85:02:d7:d5:
        28:a9:8f:35:93:66:3c:7d:e5:9d:a7:ff:23:58:68:0f:46:91:
        f0:1e:fc:f6:bf:c3:cd:23:b1:92:90:64:ec:f2:6c:e2:84:8a:
        6b:16:ce:25:c1:7f:fa:ba:b8:03:dd:db:17:8f:22:9e:c9:29:
        ff:59:d6:ba:11:c3:3a:18:cb:6c:d7:72:c1:f7:34:3b:b9:ed:
        cb:8b:f0:15:fe:52:e8:d1
-----BEGIN CERTIFICATE-----
MIIFkTCCA3mgAwIBAgIBAjANBgkqhkiG9w0BAQsFADBuMQswCQYDVQQGEwJQTDEV
MBMGA1UECAwMV2llbGtvcG9sc2thMRIwEAYDVQQHDAlQb3puYcOFwoQxEDAOBgNV
BAoMB2dvdG9kZXYxEDAOBgNVBAsMB2dvdG9kZXYxEDAOBgNVBAMMB2dvdG9kZXYw
HhcNMjMxMjA3MTk0OTE0WhcNMjYwOTAyMTk0OTE0WjB0MQswCQYDVQQGEwJQTDEV
MBMGA1UECAwMV2llbGtvcG9sc2thMRIwEAYDVQQHDAlQb3puYcOFwoQxEDAOBgNV
BAoMB2dvdG9kZXYxEDAOBgNVBAsMB2dvdG9kZXYxFjAUBgNVBAMMDWdvdG9kZXYu
bG9jYWwwggEiMA0GCSqGSIb3DQEBAQUAA4IBDwAwggEKAoIBAQC8cICSK5MEX2WM
+bXNu/N8Ew9tIJWV7Uevi6/aXdGLnrU1fYVT7zhK6SIfydaqH2LVfwmIVAGFiFd/
97a6L72Z43YeNa0GF2ElxATqZlLi028ElFOjJAW0eKReMzHftiul78FdPWyHQKZF
F0EVDYb7UW8yyBBHuiEJsXYZfliB/4jW9DEPCvPh5g3juGZ5lg6W8dx8XtVGUzMJ
1mjMCTFKEw7xPWq2osTpywwY2fhJk//0bESj/xrSPV7qkCBQ16zqvCMHcguSacJX
LVfivdT1kOPS7a1rfOASXELA/7bmuWQ24HMqzNS5Cd6ZoXTnVd03XXZuo70ssTp4
12TeeUhJAgMBAAGjggEyMIIBLjAdBgNVHQ4EFgQUlzU9V+kybI5PJB89K+Zwakwf
D4QwHwYDVR0jBBgwFoAUMVllvoU6ihk4yCWhmxmrRDKrFWowCQYDVR0TBAIwADAL
BgNVHQ8EBAMCBaAwgaUGA1UdEQSBnTCBmoINZ290b2Rldi5sb2NhbIIPKi5nb3Rv
ZGV2LmxvY2Fsgg1qZW5raW5zLmxvY2FsghNhbGVydC1tYW5hZ2VyLmxvY2FsghBw
cm9tZXRoZXVzLmxvY2Fsgg5jYWR2aXNvci5sb2NhbIITbm9kZS1leHBvcnRlci5s
b2NhbIINZ3JhZmFuYS5sb2NhbIIOcmFiYml0bXEubG9jYWwwLAYJYIZIAYb4QgEN
BB8WHU9wZW5TU0wgR2VuZXJhdGVkIENlcnRpZmljYXRlMA0GCSqGSIb3DQEBCwUA
A4ICAQA2cECddC63MVrAIgQxpw+BQT5iOq52wXPkc5jRi2azw0S2ag0mEwc5MRIt
9ofPhhOi1qcR5TxEK7b3CcZUA+l8qi0mw/6oug1547pYue6pTDk86dLde8wKpjE2
eGqV4kOJSSL/CdZ4llCitPSfIqerxq8aPxaur2N1Bz6WycRYCKBN7lKptpBjuYaU
YZj7Ll7pAxxegoASygP3/TpmPOcY8OyAiltqAOqjLM12nmztpswdy5g2FTp9jX/e
e7PrKlKh3TKHDcKZj576IzIm7QxjvTBwjPP3k4BNO9WPWiFUWdmAXStYH2frIEAE
qYkJbtYcq6XqpbvQq4damwuiUWTp0DSkbqLcStfTu0qp0DuHbhnAiLkjQEl1D2+c
klsnDgIgPsMkb3nlVgIrRt0PU8k7Oluvc6eI+5GyOwcEFvs/7DIL3tVyztQAGmfq
gd4258cJ9WgsxzKFKjPQMX00clakLc0ZsOnqO0Dd3TvyqIWbwUj6DF+5TecdpfBj
VtR0nbifECaPgH62oco7rvSz78fG3AfoyGSOM1NUZj9/pZasd9BXWfR9DTX9Dfnn
koUC19UoqY81k2Y8feWdp/8jWGgPRpHwHvz2v8PNI7GSkGTs8mzihIprFs4lwX/6
urgD3dsXjyKeySn/Wda6EcM6GMts13LB9zQ7ue3Li/AV/lLo0Q==
-----END CERTIFICATE-----
