Certificate:
    Data:
        Version: 3 (0x2)
        Serial Number: 3 (0x3)
        Signature Algorithm: sha256WithRSAEncryption
        Issuer: C=PL, ST=Wielkopolska, L=Pozna\xC3\x85\xC2\x84, O=gotodev, OU=gotodev, CN=gotodev
        Validity
            Not Before: Feb  4 21:09:46 2024 GMT
            Not After : Oct 31 21:09:46 2026 GMT
        Subject: C=PL, ST=Wielkopolska, L=Pozna\xC3\x85\xC2\x84, O=gotodev, OU=gotodev, CN=gotodev.local
        Subject Public Key Info:
            Public Key Algorithm: rsaEncryption
                Public-Key: (2048 bit)
                Modulus:
                    00:e4:07:85:bb:2c:d8:39:9b:6c:9a:a8:67:b9:17:
                    88:87:fe:88:e0:47:12:59:d7:51:39:d3:fd:2b:a1:
                    6f:cd:79:b9:8c:93:0a:81:92:21:37:b5:81:ee:5b:
                    f6:bb:58:d9:c1:10:44:12:1d:5c:47:ce:f0:99:76:
                    f1:e6:c3:8b:7c:d9:c7:18:cd:b6:d1:28:8d:5f:33:
                    c3:38:b6:c5:ad:28:66:2f:14:bd:fc:fd:1d:fe:15:
                    ee:76:7c:37:fe:f2:2b:c1:8f:8e:68:b8:9e:40:9a:
                    a9:19:1a:89:e7:d4:49:4d:18:df:76:6a:87:62:41:
                    87:51:39:05:bc:c2:7a:9f:a6:cb:33:a9:e6:34:85:
                    72:ea:73:ab:bb:40:4a:7a:ad:cf:8f:a2:75:7d:3e:
                    a5:4e:3c:24:85:5d:cc:7e:8b:14:26:4e:fa:a4:1c:
                    be:5e:70:29:5b:0e:94:81:2c:d1:34:06:69:29:05:
                    fa:59:0f:49:14:ed:d1:3d:99:b7:62:be:50:4e:a8:
                    a7:b1:b3:32:a7:56:9f:98:ee:c0:af:02:4a:83:6b:
                    8e:53:d1:f5:e4:0e:87:02:11:fe:c8:ea:42:73:7f:
                    88:79:b4:30:74:8a:ef:74:81:7e:da:7a:5e:81:c4:
                    d6:b1:cb:94:9d:a9:bc:ac:4d:c5:5f:7b:f1:be:af:
                    bc:45
                Exponent: 65537 (0x10001)
        X509v3 extensions:
            X509v3 Subject Key Identifier: 
                29:04:EE:4E:A2:EB:6D:79:DA:F9:94:D3:3A:3C:B8:B4:B6:E6:B8:09
            X509v3 Authority Key Identifier: 
                31:59:65:BE:85:3A:8A:19:38:C8:25:A1:9B:19:AB:44:32:AB:15:6A
            X509v3 Basic Constraints: 
                CA:FALSE
            X509v3 Key Usage: 
                Digital Signature, Key Encipherment
            X509v3 Subject Alternative Name: 
                DNS:gotodev.local, DNS:*.gotodev.local, DNS:traefik.local, DNS:jenkins.local, DNS:alert-manager.local, DNS:prometheus.local, DNS:cadvisor.local, DNS:node-exporter.local, DNS:grafana.local, DNS:rabbitmq.local, DNS:wordpress.local
            Netscape Comment: 
                OpenSSL Generated Certificate
    Signature Algorithm: sha256WithRSAEncryption
    Signature Value:
        55:12:dc:91:40:d2:35:4b:5b:00:cf:de:2a:d1:39:c7:9d:10:
        7f:f3:47:a5:bd:9a:21:57:5e:21:d3:16:40:a7:c2:70:cb:ab:
        9b:92:51:55:59:37:9b:4e:5d:37:cb:55:10:8d:6d:6e:2c:54:
        d1:c4:1c:b5:db:53:4a:c2:51:eb:e6:a3:d2:1a:49:cf:39:b9:
        e5:3c:d6:d1:2d:3a:a4:b8:33:99:09:38:99:18:3e:7d:81:ca:
        ef:94:ac:d7:dd:c0:c9:77:4c:b5:f7:14:9a:85:6c:d9:38:20:
        55:17:53:45:5a:f0:e5:3b:84:dd:2d:e6:70:d7:89:d6:c6:6b:
        c4:03:c5:9e:22:8f:28:88:b5:fc:13:24:9b:53:ec:8a:b0:bd:
        ab:f4:2b:69:b9:43:1b:e9:e9:50:d7:89:e6:be:60:f1:9f:c8:
        f8:f7:71:7e:7c:90:80:ae:2f:c9:f3:fd:f0:f9:44:d6:36:fa:
        9c:a7:5c:bb:e3:b9:b1:94:6b:d2:0a:d4:a6:b3:01:a6:4e:a8:
        1d:88:e1:ef:51:af:fe:23:87:1c:b0:7c:ac:0e:26:ba:fc:5b:
        4e:20:72:dc:a4:6a:1b:c3:e7:13:26:28:ed:a9:03:a8:a5:a5:
        4f:ff:90:8b:84:20:a4:64:f0:be:2d:de:0c:78:58:d7:11:08:
        13:43:ee:85:e2:9a:1b:da:0a:a6:26:36:41:5b:06:59:6e:d3:
        18:9a:76:dc:00:64:be:f4:9d:2d:af:77:d9:2e:18:d2:e7:03:
        a1:43:c0:67:72:ed:f8:78:06:64:82:57:32:67:1e:2d:35:97:
        f8:22:8a:ed:c0:ca:42:54:4c:6f:86:35:97:e7:f7:02:45:6c:
        0e:ae:bf:ed:8a:ad:e2:8d:40:6c:eb:d3:41:8f:55:05:01:15:
        7b:7f:ea:b4:0d:f1:15:0a:00:6f:ff:02:b8:53:7c:48:96:b2:
        59:ab:e7:52:62:e9:c1:53:f6:dc:19:14:bc:1e:e9:5e:a5:95:
        4c:11:e2:d0:89:be:09:25:8e:4a:50:4a:46:ab:f9:f9:d9:08:
        e4:41:b5:21:2b:48:bb:79:f9:07:6c:36:af:b6:22:2c:ad:ea:
        39:a4:7a:3a:d3:8c:29:ae:f9:60:25:a9:d6:c1:05:e7:a9:69:
        33:5e:8e:db:0f:67:d0:af:36:35:b2:0c:a9:60:e7:9c:92:7a:
        42:8d:c7:2b:17:b5:38:a1:82:a0:58:ad:d3:40:9b:00:d8:8c:
        b2:7b:45:db:e1:71:68:d4:ed:0b:95:69:d9:66:af:58:3c:0d:
        d7:67:ae:bf:ac:cf:c0:53:04:6f:37:48:53:a8:90:d6:74:b8:
        66:c9:91:7d:08:57:40:2c
-----BEGIN CERTIFICATE-----
MIIFsTCCA5mgAwIBAgIBAzANBgkqhkiG9w0BAQsFADBuMQswCQYDVQQGEwJQTDEV
MBMGA1UECAwMV2llbGtvcG9sc2thMRIwEAYDVQQHDAlQb3puYcOFwoQxEDAOBgNV
BAoMB2dvdG9kZXYxEDAOBgNVBAsMB2dvdG9kZXYxEDAOBgNVBAMMB2dvdG9kZXYw
HhcNMjQwMjA0MjEwOTQ2WhcNMjYxMDMxMjEwOTQ2WjB0MQswCQYDVQQGEwJQTDEV
MBMGA1UECAwMV2llbGtvcG9sc2thMRIwEAYDVQQHDAlQb3puYcOFwoQxEDAOBgNV
BAoMB2dvdG9kZXYxEDAOBgNVBAsMB2dvdG9kZXYxFjAUBgNVBAMMDWdvdG9kZXYu
bG9jYWwwggEiMA0GCSqGSIb3DQEBAQUAA4IBDwAwggEKAoIBAQDkB4W7LNg5m2ya
qGe5F4iH/ojgRxJZ11E50/0roW/NebmMkwqBkiE3tYHuW/a7WNnBEEQSHVxHzvCZ
dvHmw4t82ccYzbbRKI1fM8M4tsWtKGYvFL38/R3+Fe52fDf+8ivBj45ouJ5AmqkZ
Gonn1ElNGN92aodiQYdROQW8wnqfpsszqeY0hXLqc6u7QEp6rc+PonV9PqVOPCSF
Xcx+ixQmTvqkHL5ecClbDpSBLNE0BmkpBfpZD0kU7dE9mbdivlBOqKexszKnVp+Y
7sCvAkqDa45T0fXkDocCEf7I6kJzf4h5tDB0iu90gX7ael6BxNaxy5SdqbysTcVf
e/G+r7xFAgMBAAGjggFSMIIBTjAdBgNVHQ4EFgQUKQTuTqLrbXna+ZTTOjy4tLbm
uAkwHwYDVR0jBBgwFoAUMVllvoU6ihk4yCWhmxmrRDKrFWowCQYDVR0TBAIwADAL
BgNVHQ8EBAMCBaAwgcUGA1UdEQSBvTCBuoINZ290b2Rldi5sb2NhbIIPKi5nb3Rv
ZGV2LmxvY2Fsgg10cmFlZmlrLmxvY2Fsgg1qZW5raW5zLmxvY2FsghNhbGVydC1t
YW5hZ2VyLmxvY2FsghBwcm9tZXRoZXVzLmxvY2Fsgg5jYWR2aXNvci5sb2NhbIIT
bm9kZS1leHBvcnRlci5sb2NhbIINZ3JhZmFuYS5sb2NhbIIOcmFiYml0bXEubG9j
YWyCD3dvcmRwcmVzcy5sb2NhbDAsBglghkgBhvhCAQ0EHxYdT3BlblNTTCBHZW5l
cmF0ZWQgQ2VydGlmaWNhdGUwDQYJKoZIhvcNAQELBQADggIBAFUS3JFA0jVLWwDP
3irROcedEH/zR6W9miFXXiHTFkCnwnDLq5uSUVVZN5tOXTfLVRCNbW4sVNHEHLXb
U0rCUevmo9IaSc85ueU81tEtOqS4M5kJOJkYPn2Byu+UrNfdwMl3TLX3FJqFbNk4
IFUXU0Va8OU7hN0t5nDXidbGa8QDxZ4ijyiItfwTJJtT7Iqwvav0K2m5Qxvp6VDX
iea+YPGfyPj3cX58kICuL8nz/fD5RNY2+pynXLvjubGUa9IK1KazAaZOqB2I4e9R
r/4jhxywfKwOJrr8W04gctykahvD5xMmKO2pA6ilpU//kIuEIKRk8L4t3gx4WNcR
CBND7oXimhvaCqYmNkFbBllu0xiadtwAZL70nS2vd9kuGNLnA6FDwGdy7fh4BmSC
VzJnHi01l/giiu3AykJUTG+GNZfn9wJFbA6uv+2KreKNQGzr00GPVQUBFXt/6rQN
8RUKAG//ArhTfEiWslmr51Ji6cFT9twZFLwe6V6llUwR4tCJvgkljkpQSkar+fnZ
CORBtSErSLt5+QdsNq+2Iiyt6jmkejrTjCmu+WAlqdbBBeepaTNejtsPZ9CvNjWy
DKlg55ySekKNxysXtTihgqBYrdNAmwDYjLJ7RdvhcWjU7QuVadlmr1g8Dddnrr+s
z8BTBG83SFOokNZ0uGbJkX0IV0As
-----END CERTIFICATE-----
